target datalayout = "e-m:e-p270:32:32-p271:32:32-p272:64:64-i64:64-i128:128-f80:128-n8:16:32:64-S128"
target triple = "x86_64-pc-linux-gnu"

@.str.14 = private unnamed_addr constant [30 x i8] c"../openssl/test/quicapitest.c\00", align 1
@.str.384 = private unnamed_addr constant [22 x i8] c"addr = BIO_ADDR_new()\00", align 1
@.str.385 = private unnamed_addr constant [74 x i8] c"BIO_ADDR_rawmake(addr, AF_INET, ina, sizeof(struct in_addr), htons(port))\00", align 1

; Function Attrs: inlinehint nounwind uwtable
define internal zeroext i16 @__bswap_16(i16 noundef zeroext %0) #5 {
  %2 = alloca i16, align 2
  store i16 %0, ptr %2, align 2, !tbaa !116
  %3 = load i16, ptr %2, align 2, !tbaa !116
  %4 = zext i16 %3 to i32
  %5 = ashr i32 %4, 8
  %6 = and i32 %5, 255
  %7 = load i16, ptr %2, align 2, !tbaa !116
  %8 = zext i16 %7 to i32
  %9 = and i32 %8, 255
  %10 = shl i32 %9, 8
  %11 = or i32 %6, %10
  %12 = trunc i32 %11 to i16
  ret i16 %12
}

; Function Attrs: nounwind uwtable
define internal ptr @create_addr(ptr noundef %0, i16 noundef signext %1) #0 {
  %3 = alloca ptr, align 8
  %4 = alloca ptr, align 8
  %5 = alloca i16, align 2
  %6 = alloca ptr, align 8
  %7 = alloca i32, align 4
  store ptr %0, ptr %4, align 8, !tbaa !114
  store i16 %1, ptr %5, align 2, !tbaa !116
  call void @llvm.lifetime.start.p0(i64 8, ptr %6) #8
  store ptr null, ptr %6, align 8, !tbaa !64
  %8 = call ptr @BIO_ADDR_new()
  store ptr %8, ptr %6, align 8, !tbaa !64
  %9 = call i32 @test_ptr(ptr noundef @.str.14, i32 noundef 2516, ptr noundef @.str.384, ptr noundef %8)
  %10 = icmp ne i32 %9, 0
  br i1 %10, label %12, label %11

11:                                               ; preds = %2
  store ptr null, ptr %3, align 8
  store i32 1, ptr %7, align 4
  br label %26

12:                                               ; preds = %2
  %13 = load ptr, ptr %6, align 8, !tbaa !64
  %14 = load ptr, ptr %4, align 8, !tbaa !114
  %15 = load i16, ptr %5, align 2, !tbaa !116
  %16 = call zeroext i16 @__bswap_16(i16 noundef zeroext %15)
  %17 = call i32 @BIO_ADDR_rawmake(ptr noundef %13, i32 noundef 2, ptr noundef %14, i64 noundef 4, i16 noundef zeroext %16)
  %18 = icmp ne i32 %17, 0
  %19 = zext i1 %18 to i32
  %20 = call i32 @test_true(ptr noundef @.str.14, i32 noundef 2520, ptr noundef @.str.385, i32 noundef %19)
  %21 = icmp ne i32 %20, 0
  br i1 %21, label %24, label %22

22:                                               ; preds = %12
  %23 = load ptr, ptr %6, align 8, !tbaa !64
  call void @BIO_ADDR_free(ptr noundef %23)
  store ptr null, ptr %3, align 8
  store i32 1, ptr %7, align 4
  br label %26

24:                                               ; preds = %12
  %25 = load ptr, ptr %6, align 8, !tbaa !64
  store ptr %25, ptr %3, align 8
  store i32 1, ptr %7, align 4
  br label %26

26:                                               ; preds = %24, %22, %11
  call void @llvm.lifetime.end.p0(i64 8, ptr %6) #8
  %27 = load ptr, ptr %3, align 8
  ret ptr %27
}