; Function Attrs: nounwind uwtable
define internal fastcc noundef ptr @create_addr(ptr noundef nonnull %0, i16 noundef signext range(i16 4080, 8041) %1) unnamed_addr #1 {
  %3 = tail call ptr @BIO_ADDR_new() #10
  %4 = tail call i32 @test_ptr(ptr noundef nonnull @.str.14, i32 noundef 2516, ptr noundef nonnull @.str.384, ptr noundef %3) #10
  %.not = icmp eq i32 %4, 0
  br i1 %.not, label %11, label %5

5:                                                ; preds = %2
  %rev.i = tail call range(i16 15, -224) i16 @llvm.bswap.i16(i16 range(i16 4080, 8041) %1)
  %6 = tail call i32 @BIO_ADDR_rawmake(ptr noundef %3, i32 noundef 2, ptr noundef nonnull %0, i64 noundef 4, i16 noundef zeroext %rev.i) #10
  %7 = icmp ne i32 %6, 0
  %8 = zext i1 %7 to i32
  %9 = tail call i32 @test_true(ptr noundef nonnull @.str.14, i32 noundef 2520, ptr noundef nonnull @.str.385, i32 noundef %8) #10
  %.not5 = icmp eq i32 %9, 0
  br i1 %.not5, label %10, label %11

10:                                               ; preds = %5
  tail call void @BIO_ADDR_free(ptr noundef %3) #10
  br label %11

11:                                               ; preds = %5, %2, %10
  %.0 = phi ptr [ null, %10 ], [ null, %2 ], [ %3, %5 ]
  ret ptr %.0
}